target datalayout = "e-m:e-p270:32:32-p271:32:32-p272:64:64-i64:64-i128:128-f80:128-n8:16:32:64-S128"
target triple = "x86_64-pc-linux-gnu"

%struct.openapi_resp_single_t = type { ptr, ptr, ptr, ptr }
%struct.data_parser_dump_cli_ctxt_t = type { i32, i32, ptr, ptr, ptr }

@options = dso_local global i16 0, align 2
@mimetype = external global ptr, align 8
@data_parser = external global ptr, align 8
@.str.39 = private unnamed_addr constant [36 x i8] c"Couldn't get shares from controller\00", align 1

; Function Attrs: nounwind uwtable
define internal i32 @_single_cluster(i32 noundef %0, ptr noundef %1, ptr noundef %2) #0 {
  %4 = alloca i32, align 4
  %5 = alloca i32, align 4
  %6 = alloca ptr, align 8
  %7 = alloca ptr, align 8
  %8 = alloca i32, align 4
  %9 = alloca ptr, align 8
  %10 = alloca i32, align 4
  %11 = alloca %struct.openapi_resp_single_t, align 8
  %12 = alloca %struct.data_parser_dump_cli_ctxt_t, align 8
  %13 = alloca ptr, align 8
  store i32 %0, ptr %5, align 4
  store ptr %1, ptr %6, align 8
  store ptr %2, ptr %7, align 8
  call void @llvm.lifetime.start.p0(i64 4, ptr %8) #9
  store i32 0, ptr %8, align 4
  call void @llvm.lifetime.start.p0(i64 8, ptr %9) #9
  store ptr null, ptr %9, align 8
  %14 = load ptr, ptr %7, align 8
  %15 = call i32 @slurm_associations_get_shares(ptr noundef %14, ptr noundef %9)
  store i32 %15, ptr %8, align 4
  %16 = load i32, ptr %8, align 4
  %17 = icmp ne i32 %16, 0
  br i1 %17, label %18, label %20

18:                                               ; preds = %3
  call void @slurm_perror(ptr noundef @.str.39)
  %19 = load i32, ptr %8, align 4
  store i32 %19, ptr %4, align 4
  store i32 1, ptr %10, align 4
  br label %125

20:                                               ; preds = %3
  %21 = load ptr, ptr @mimetype, align 8
  %22 = icmp ne ptr %21, null
  br i1 %22, label %23, label %118

23:                                               ; preds = %20
  br label %24

24:                                               ; preds = %23
  call void @llvm.lifetime.start.p0(i64 32, ptr %11) #9
  call void @llvm.memset.p0.i64(ptr align 8 %11, i8 0, i64 32, i1 false)
  %25 = getelementptr inbounds nuw %struct.openapi_resp_single_t, ptr %11, i32 0, i32 3
  %26 = load ptr, ptr %9, align 8
  store ptr %26, ptr %25, align 8
  br label %27

27:                                               ; preds = %24
  call void @llvm.lifetime.start.p0(i64 32, ptr %12) #9
  %28 = getelementptr inbounds nuw %struct.data_parser_dump_cli_ctxt_t, ptr %12, i32 0, i32 0
  store i32 463606195, ptr %28, align 8
  %29 = getelementptr inbounds nuw %struct.data_parser_dump_cli_ctxt_t, ptr %12, i32 0, i32 1
  store i32 0, ptr %29, align 4
  %30 = getelementptr inbounds nuw %struct.data_parser_dump_cli_ctxt_t, ptr %12, i32 0, i32 2
  store ptr null, ptr %30, align 8
  %31 = getelementptr inbounds nuw %struct.data_parser_dump_cli_ctxt_t, ptr %12, i32 0, i32 3
  store ptr null, ptr %31, align 8
  %32 = getelementptr inbounds nuw %struct.data_parser_dump_cli_ctxt_t, ptr %12, i32 0, i32 4
  %33 = load ptr, ptr @data_parser, align 8
  store ptr %33, ptr %32, align 8
  call void @llvm.lifetime.start.p0(i64 8, ptr %13) #9
  store ptr %11, ptr %13, align 8
  %34 = getelementptr inbounds nuw %struct.openapi_resp_single_t, ptr %11, i32 0, i32 0
  %35 = load ptr, ptr %34, align 8
  %36 = icmp ne ptr %35, null
  br i1 %36, label %43, label %37

37:                                               ; preds = %27
  %38 = load i32, ptr %5, align 4
  %39 = load ptr, ptr %6, align 8
  %40 = load ptr, ptr @mimetype, align 8
  %41 = call ptr @data_parser_cli_meta(i32 noundef %38, ptr noundef %39, ptr noundef %40)
  %42 = getelementptr inbounds nuw %struct.openapi_resp_single_t, ptr %11, i32 0, i32 0
  store ptr %41, ptr %42, align 8
  br label %43

43:                                               ; preds = %37, %27
  %44 = getelementptr inbounds nuw %struct.openapi_resp_single_t, ptr %11, i32 0, i32 1
  %45 = load ptr, ptr %44, align 8
  %46 = icmp ne ptr %45, null
  br i1 %46, label %51, label %47

47:                                               ; preds = %43
  %48 = call ptr @list_create(ptr noundef @free_openapi_resp_error)
  %49 = getelementptr inbounds nuw %struct.data_parser_dump_cli_ctxt_t, ptr %12, i32 0, i32 2
  store ptr %48, ptr %49, align 8
  %50 = getelementptr inbounds nuw %struct.openapi_resp_single_t, ptr %11, i32 0, i32 1
  store ptr %48, ptr %50, align 8
  br label %55

51:                                               ; preds = %43
  %52 = getelementptr inbounds nuw %struct.openapi_resp_single_t, ptr %11, i32 0, i32 1
  %53 = load ptr, ptr %52, align 8
  %54 = getelementptr inbounds nuw %struct.data_parser_dump_cli_ctxt_t, ptr %12, i32 0, i32 2
  store ptr %53, ptr %54, align 8
  br label %55

55:                                               ; preds = %51, %47
  %56 = getelementptr inbounds nuw %struct.openapi_resp_single_t, ptr %11, i32 0, i32 2
  %57 = load ptr, ptr %56, align 8
  %58 = icmp ne ptr %57, null
  br i1 %58, label %63, label %59

59:                                               ; preds = %55
  %60 = call ptr @list_create(ptr noundef @free_openapi_resp_warning)
  %61 = getelementptr inbounds nuw %struct.data_parser_dump_cli_ctxt_t, ptr %12, i32 0, i32 3
  store ptr %60, ptr %61, align 8
  %62 = getelementptr inbounds nuw %struct.openapi_resp_single_t, ptr %11, i32 0, i32 2
  store ptr %60, ptr %62, align 8
  br label %67

63:                                               ; preds = %55
  %64 = getelementptr inbounds nuw %struct.openapi_resp_single_t, ptr %11, i32 0, i32 2
  %65 = load ptr, ptr %64, align 8
  %66 = getelementptr inbounds nuw %struct.data_parser_dump_cli_ctxt_t, ptr %12, i32 0, i32 3
  store ptr %65, ptr %66, align 8
  br label %67

67:                                               ; preds = %63, %59
  %68 = load ptr, ptr %13, align 8
  %69 = load ptr, ptr @mimetype, align 8
  %70 = load ptr, ptr @data_parser, align 8
  %71 = getelementptr inbounds nuw %struct.openapi_resp_single_t, ptr %11, i32 0, i32 0
  %72 = load ptr, ptr %71, align 8
  %73 = call i32 @data_parser_dump_cli_stdout(i32 noundef 507, ptr noundef %68, i32 noundef 32, ptr noundef null, ptr noundef %69, ptr noundef %70, ptr noundef %12, ptr noundef %72)
  store i32 %73, ptr %8, align 4
  br label %74

74:                                               ; preds = %67
  %75 = load ptr, ptr %13, align 8
  %76 = icmp ne ptr %75, null
  br i1 %76, label %77, label %111

77:                                               ; preds = %74
  br label %78

78:                                               ; preds = %77
  %79 = load ptr, ptr %13, align 8
  %80 = getelementptr inbounds nuw %struct.openapi_resp_single_t, ptr %79, i32 0, i32 2
  %81 = load ptr, ptr %80, align 8
  %82 = icmp ne ptr %81, null
  br i1 %82, label %83, label %87

83:                                               ; preds = %78
  %84 = load ptr, ptr %13, align 8
  %85 = getelementptr inbounds nuw %struct.openapi_resp_single_t, ptr %84, i32 0, i32 2
  %86 = load ptr, ptr %85, align 8
  call void @list_destroy(ptr noundef %86)
  br label %87

87:                                               ; preds = %83, %78
  %88 = load ptr, ptr %13, align 8
  %89 = getelementptr inbounds nuw %struct.openapi_resp_single_t, ptr %88, i32 0, i32 2
  store ptr null, ptr %89, align 8
  br label %90

90:                                               ; preds = %87
  br label %91

91:                                               ; preds = %90
  br label %92

92:                                               ; preds = %91
  %93 = load ptr, ptr %13, align 8
  %94 = getelementptr inbounds nuw %struct.openapi_resp_single_t, ptr %93, i32 0, i32 1
  %95 = load ptr, ptr %94, align 8
  %96 = icmp ne ptr %95, null
  br i1 %96, label %97, label %101

97:                                               ; preds = %92
  %98 = load ptr, ptr %13, align 8
  %99 = getelementptr inbounds nuw %struct.openapi_resp_single_t, ptr %98, i32 0, i32 1
  %100 = load ptr, ptr %99, align 8
  call void @list_destroy(ptr noundef %100)
  br label %101

101:                                              ; preds = %97, %92
  %102 = load ptr, ptr %13, align 8
  %103 = getelementptr inbounds nuw %struct.openapi_resp_single_t, ptr %102, i32 0, i32 1
  store ptr null, ptr %103, align 8
  br label %104

104:                                              ; preds = %101
  br label %105

105:                                              ; preds = %104
  %106 = load ptr, ptr %13, align 8
  %107 = getelementptr inbounds nuw %struct.openapi_resp_single_t, ptr %106, i32 0, i32 0
  %108 = load ptr, ptr %107, align 8
  call void @free_openapi_resp_meta(ptr noundef %108)
  %109 = load ptr, ptr %13, align 8
  %110 = getelementptr inbounds nuw %struct.openapi_resp_single_t, ptr %109, i32 0, i32 0
  store ptr null, ptr %110, align 8
  br label %111

111:                                              ; preds = %105, %74
  br label %112

112:                                              ; preds = %111
  br label %113

113:                                              ; preds = %112
  call void @llvm.lifetime.end.p0(i64 8, ptr %13) #9
  call void @llvm.lifetime.end.p0(i64 32, ptr %12) #9
  br label %114

114:                                              ; preds = %113
  br label %115

115:                                              ; preds = %114
  call void @llvm.lifetime.end.p0(i64 32, ptr %11) #9
  br label %116

116:                                              ; preds = %115
  br label %117

117:                                              ; preds = %116
  br label %122

118:                                              ; preds = %20
  %119 = load ptr, ptr %9, align 8
  %120 = load i16, ptr @options, align 2
  %121 = call i32 @process(ptr noundef %119, i16 noundef zeroext %120)
  br label %122

122:                                              ; preds = %118, %117
  %123 = load ptr, ptr %9, align 8
  call void @slurm_free_shares_response_msg(ptr noundef %123)
  %124 = load i32, ptr %8, align 4
  store i32 %124, ptr %4, align 4
  store i32 1, ptr %10, align 4
  br label %125

125:                                              ; preds = %122, %18
  call void @llvm.lifetime.end.p0(i64 8, ptr %9) #9
  call void @llvm.lifetime.end.p0(i64 4, ptr %8) #9
  %126 = load i32, ptr %4, align 4
  ret i32 %126
}