; Function Attrs: nounwind uwtable
define internal fastcc i32 @_single_cluster(i32 noundef %0, ptr noundef %1, ptr noundef nonnull %2) unnamed_addr #10 {
  %4 = alloca ptr, align 8
  %5 = alloca %struct.openapi_resp_single_t, align 8
  %6 = alloca %struct.data_parser_dump_cli_ctxt_t, align 8
  call void @llvm.lifetime.start.p0(i64 8, ptr nonnull %4) #14
  store ptr null, ptr %4, align 8
  %7 = call i32 @slurm_associations_get_shares(ptr noundef nonnull %2, ptr noundef nonnull %4) #14
  %.not = icmp eq i32 %7, 0
  br i1 %.not, label %9, label %8

8:                                                ; preds = %3
  call void @slurm_perror(ptr noundef nonnull @.str.39) #14
  br label %40

9:                                                ; preds = %3
  %10 = load ptr, ptr @mimetype, align 8
  %.not22 = icmp eq ptr %10, null
  br i1 %.not22, label %34, label %11

11:                                               ; preds = %9
  call void @llvm.lifetime.start.p0(i64 32, ptr nonnull %5) #14
  %12 = getelementptr inbounds nuw i8, ptr %5, i64 24
  %13 = load ptr, ptr %4, align 8
  store ptr %13, ptr %12, align 8
  call void @llvm.lifetime.start.p0(i64 32, ptr nonnull %6) #14
  store i32 463606195, ptr %6, align 8
  %14 = getelementptr inbounds nuw i8, ptr %6, i64 4
  %15 = getelementptr inbounds nuw i8, ptr %6, i64 8
  %16 = getelementptr inbounds nuw i8, ptr %6, i64 16
  %17 = getelementptr inbounds nuw i8, ptr %6, i64 24
  store i32 0, ptr %14, align 4
  %18 = load ptr, ptr @data_parser, align 8
  store ptr %18, ptr %17, align 8
  %19 = call ptr @data_parser_cli_meta(i32 noundef %0, ptr noundef %1, ptr noundef nonnull %10) #14
  store ptr %19, ptr %5, align 8
  %20 = getelementptr inbounds nuw i8, ptr %5, i64 8
  %21 = call ptr @list_create(ptr noundef nonnull @free_openapi_resp_error) #14
  store ptr %21, ptr %20, align 8
  store ptr %21, ptr %15, align 8
  %22 = getelementptr inbounds nuw i8, ptr %5, i64 16
  %23 = call ptr @list_create(ptr noundef nonnull @free_openapi_resp_warning) #14
  store ptr %23, ptr %22, align 8
  store ptr %23, ptr %16, align 8
  %24 = load ptr, ptr @mimetype, align 8
  %25 = load ptr, ptr @data_parser, align 8
  %26 = call i32 @data_parser_dump_cli_stdout(i32 noundef 507, ptr noundef nonnull %5, i32 noundef 32, ptr noundef null, ptr noundef %24, ptr noundef %25, ptr noundef nonnull %6, ptr noundef %19) #14
  %27 = load ptr, ptr %22, align 8
  %.not26 = icmp eq ptr %27, null
  br i1 %.not26, label %29, label %28

28:                                               ; preds = %11
  call void @list_destroy(ptr noundef nonnull %27) #14
  br label %29

29:                                               ; preds = %28, %11
  store ptr null, ptr %22, align 8
  %30 = load ptr, ptr %20, align 8
  %.not27 = icmp eq ptr %30, null
  br i1 %.not27, label %32, label %31

31:                                               ; preds = %29
  call void @list_destroy(ptr noundef nonnull %30) #14
  br label %32

32:                                               ; preds = %31, %29
  store ptr null, ptr %20, align 8
  %33 = load ptr, ptr %5, align 8
  call void @free_openapi_resp_meta(ptr noundef %33) #14
  call void @llvm.lifetime.end.p0(i64 32, ptr nonnull %6) #14
  call void @llvm.lifetime.end.p0(i64 32, ptr nonnull %5) #14
  br label %38

34:                                               ; preds = %9
  %35 = load ptr, ptr %4, align 8
  %36 = load i16, ptr @options, align 2
  %37 = call i32 @process(ptr noundef %35, i16 noundef zeroext %36) #14
  br label %38

38:                                               ; preds = %34, %32
  %.016 = phi i32 [ %26, %32 ], [ 0, %34 ]
  %39 = load ptr, ptr %4, align 8
  call void @slurm_free_shares_response_msg(ptr noundef %39) #14
  br label %40

40:                                               ; preds = %38, %8
  %.0 = phi i32 [ %7, %8 ], [ %.016, %38 ]
  call void @llvm.lifetime.end.p0(i64 8, ptr nonnull %4) #14
  ret i32 %.0
}